; Function Attrs: mustprogress nounwind willreturn memory(argmem: readwrite, inaccessiblemem: readwrite) uwtable
define void @PMIx_Resource_unit_free(ptr noundef captures(address_is_null) %0, i64 noundef %1) local_unnamed_addr #18 {
  %.not.i = icmp eq ptr %0, null
  br i1 %.not.i, label %pmix_bfrops_base_tma_resource_unit_free.exit, label %.preheader.preheader.i

.preheader.preheader.i:                           ; preds = %2
  tail call void @free(ptr noundef nonnull %0) #44
  br label %pmix_bfrops_base_tma_resource_unit_free.exit

pmix_bfrops_base_tma_resource_unit_free.exit:     ; preds = %2, %.preheader.preheader.i
  ret void
}